(dp1
S'ComedyOfErrors'
p2
(lp3
S'solinus'
p4
aS'aegeon'
p5
aS'of ephesus'
p6
aS'of syracuse'
p7
aS'dromio of ephesus'
p8
aS'balthasar'
p9
aS'angelo'
p10
aS'pinch'
p11
asS'King Lear'
p12
(lp13
S'king lear'
p14
aS'king of france'
p15
aS'burgundy'
p16
aS'cornwall'
p17
aS'kent'
p18
aS'albany'
p19
aS'gloucester'
p20
aS'edgar'
p21
aS'edmund'
p22
aS'curan'
p23
aS'oswald'
p24
asS'MerchantOfVenice'
p25
(lp26
S'duke'
p27
aS'morocco'
p28
aS'arragon'
p29
aS'antonio'
p30
aS'bassanio'
p31
aS'solanio'
p32
aS'gratiano'
p33
aS'salerio'
p34
aS'lorenzo'
p35
aS'shylock'
p36
aS'tubal'
p37
aS'launcelot'
p38
aS'old gobbo'
p39
aS'leonardo'
p40
ag9
aS'stephano'
p41
asS'Timon of Athens'
p42
(lp43
S'lucius'
p44
aS'lucullus'
p45
aS'sempronius'
p46
aS'ventidius'
p47
aS'apemantus'
p48
aS'alcibiades'
p49
aS'flavius'
p50
aS'flaminius'
p51
aS'lucilius'
p52
aS'servilius'
p53
aS'hortensius'
p54
aS'caphis'
p55
aS'philotus'
p56
aS'titus'
p57
aS'poet'
p58
aS'painter'
p59
asS'AsYouLikeIt'
p60
(lp61
S'duke senior'
p62
aS'duke frederick'
p63
aS'amiens'
p64
aS'jaques'
p65
aS'le beau'
p66
aS'charles'
p67
aS'oliver'
p68
aS'jaques de boys'
p69
aS'orlando'
p70
aS'adam'
p71
aS'dennis'
p72
aS'touchstone'
p73
aS'sir oliver martext'
p74
aS'corin'
p75
aS'silvius'
p76
aS'william'
p77
aS'hymen'
p78
asS'Romeo and Juliet'
p79
(lp80
S'prince'
p81
aS'paris'
p82
aS'montague'
p83
aS'capulet'
p84
aS'romeo'
p85
aS'mercutio'
p86
aS'benvolio'
p87
aS'tybalt'
p88
aS'friar laurence'
p89
aS'friar john'
p90
ag9
aS'abraham'
p91
aS'sampson'
p92
aS'gregory'
p93
aS'peter'
p94
asS'Much Ado About Nothing'
p95
(lp96
S'don pedro'
p97
aS'don john'
p98
aS'claudio'
p99
aS'benedick'
p100
aS'leonato'
p101
ag30
ag9
aS'conrade'
p102
aS'borachio'
p103
aS'friar francis'
p104
aS'dogberry'
p105
aS'verges'
p106
asS'The Tempest'
p107
(lp108
S'alonso'
p109
aS'sebastian'
p110
aS'prospero'
p111
ag30
aS'ferdinand'
p112
aS'gonzalo'
p113
aS'adrian'
p114
aS'francisco'
p115
aS'caliban'
p116
aS'trinculo'
p117
ag41
aS'ariel'
p118
asS'HenryVIII'
p119
(lp120
S'king henry viii'
p121
aS'cardinal wolsey'
p122
aS'cardinal campeius'
p123
aS'capucius'
p124
aS'cromwell'
p125
aS'cranmer'
p126
aS'norfolk'
p127
aS'buckingham'
p128
aS'suffolk'
p129
aS'surrey'
p130
aS'chamberlain'
p131
aS'thomas more'
p132
aS'gardiner'
p133
aS'more'
p134
aS'lincoln'
p135
aS'sands'
p136
aS'abergavenny'
p137
aS'guildford'
p138
aS'lovell'
p139
aS'vaux'
p140
aS'denny'
p141
aS'griffith'
p142
aS'butts'
p143
aS'brandon'
p144
asS"The Winter's Tale"
p145
(lp146
S'leontes'
p147
aS'mamillus'
p148
aS'camillo'
p149
aS'antigonus'
p150
aS'cleomenes'
p151
aS'dion'
p152
aS'polixenes'
p153
aS'florizel'
p154
aS'archidamus'
p155
aS'shepherd'
p156
aS'clown'
p157
aS'autolycus'
p158
asS'Taming Of The Shrew'
p159
(lp160
S'lord'
p161
aS'sly'
p162
aS'bartholomew'
p163
aS'baptista'
p164
aS'vincentio'
p165
aS'lucentio'
p166
aS'petruchio'
p167
aS'gremio'
p168
aS'hortensio'
p169
aS'tranio'
p170
aS'biondello'
p171
aS'grumio'
p172
aS'curtis'
p173
aS'nathaniel'
p174
asS'JuliusCaesar'
p175
(lp176
S'caesar'
p177
aS'octavius'
p178
aS'antony'
p179
aS'lepidus'
p180
aS'cicero'
p181
aS'publius'
p182
aS'brutus'
p183
aS'cassius'
p184
aS'casca'
p185
aS'trebonius'
p186
aS'libarius'
p187
aS'cimber'
p188
aS'cinna'
p189
ag50
aS'marullus'
p190
aS'artemidorus'
p191
aS'cinna the poet'
p192
ag52
aS'titinius'
p193
aS'messala'
p194
aS'young cato'
p195
aS'volumnius'
p196
aS'varro'
p197
aS'clitus'
p198
ag99
aS'strato'
p199
ag44
aS'dardanius'
p200
aS'pindarus'
p201
asS'Coriolanus'
p202
(lp203
S'marcius'
p204
aS'titus lartius'
p205
aS'lartius'
p206
aS'cominius'
p207
aS'menenius'
p208
aS'sicinius'
p209
ag183
aS'young marcus'
p210
aS'nicanor'
p211
aS'aufidius'
p212
aS'coriolanus'
p213
asS'Richard II'
p214
(lp215
S'king richard ii'
p216
aS'john of gaunt'
p217
aS'langley'
p218
aS'henry bolinbroke'
p219
aS'king henry iv'
p220
aS'aumerle'
p221
aS'mowbray'
p222
ag127
ag130
aS'salisbury'
p223
aS'berkeleh'
p224
aS'bushy'
p225
aS'bagot'
p226
aS'green'
p227
aS'northumberland'
p228
aS'henry percy'
p229
aS'hotspur'
p230
aS'percy'
p231
aS'ross'
p232
aS'willoughby'
p233
aS'fitzwater'
p234
aS'carlisle'
p235
aS'bishop'
p236
aS'westminster'
p237
aS'marshal'
p238
aS'scroop'
p239
aS'exton'
p240
aS'sir piers'
p241
asS'Cymbeline'
p242
(lp243
S'cymbeline'
p244
aS'cloten'
p245
aS'posthumus leonatus'
p246
aS'belarius'
p247
aS'guiderius'
p248
aS'arviragus'
p249
aS'philario'
p250
aS'iachimo'
p251
aS'caius lucius'
p252
aS'pisanio'
p253
aS'cornelius'
p254
asS'HenryV'
p255
(lp256
S'chorus'
p257
aS'king henry v'
p258
ag20
aS'bedford'
p259
aS'exeter'
p260
aS'york'
p261
ag223
aS'westmoreland'
p262
aS'warwick'
p263
aS'canterbury'
p264
aS'ely'
p265
aS'cambridge'
p266
ag239
aS'sir thomas grey'
p267
aS'erpingham'
p268
aS'gower'
p269
aS'macmorris'
p270
aS'jamy'
p271
aS'fluellen'
p272
aS'bates'
p273
aS'court'
p274
aS'williams'
p275
aS'pistol'
p276
aS'bardolph'
p277
ag15
aS'ramburnes'
p278
aS'gradnpre'
p279
aS'montjoy'
p280
asS'Twelfth Night'
p281
(lp282
S'duke orsino'
p283
ag110
ag30
aS'malvolio'
p284
aS'valentine'
p285
aS'curio'
p286
aS'sir toby belch'
p287
aS'sir andrew'
p288
aS'fabian'
p289
aS'feste'
p290
asS'HenryIV'
p291
(lp292
g220
aS'prince henry'
p293
aS'prince john'
p294
ag262
aS'blunt'
p295
ag228
ag230
aS'mortimer'
p296
ag239
aS'archibald'
p297
aS'glendower'
p298
aS'vernon'
p299
aS'falstaff'
p300
aS'michael'
p301
aS'poins'
p302
aS'gadshill'
p303
aS'peto'
p304
ag277
aS'francis'
p305
asS'Othello'
p306
(lp307
S'duke of venice'
p308
aS'brabantio'
p309
aS'gratanio'
p310
aS'lodovico'
p311
aS'othello'
p312
aS'cassio'
p313
aS'iago'
p314
aS'roderigo'
p315
aS'montano'
p316
asS'King John'
p317
(lp318
S'king john'
p319
ag293
aS'henry'
p320
aS'arthur'
p321
aS'pembroke'
p322
aS'essex'
p323
ag223
aS'bigot'
p324
aS'hubert'
p325
aS'bastard'
p326
aS'king philip'
p327
aS'faulconbridge'
p328
aS'gurney'
p329
aS'lewis'
p330
aS'austria'
p331
aS'limoges'
p332
aS'cardinal pandulph'
p333
aS'melun'
p334
aS'chatillon'
p335
asS'HenryVIPart2'
p336
(lp337
S'king henry vi'
p338
ag20
aS'cardinal'
p339
ag261
aS'edward'
p340
aS'richard'
p341
aS'somerset'
p342
ag129
ag128
aS'clifford'
p343
aS'young clifford'
p344
ag223
ag263
aS'scales'
p345
aS'say'
p346
aS'stafford'
p347
aS'stanley'
p348
ag140
aS'iden'
p349
aS'whitmore'
p350
aS'hume'
p351
aS'southwell'
p352
aS'bolingbroke'
p353
aS'horner'
p354
aS'thump'
p355
aS'simpcox'
p356
aS'cade'
p357
aS'bevis'
p358
aS'holland'
p359
aS'dick'
p360
aS'smith'
p361
ag301
asS'HenryVIPart3'
p362
(lp363
g338
ag340
aS'king lewis xi'
p364
ag342
ag260
aS'oxford'
p365
ag228
ag262
aS'somerville'
p366
ag348
ag127
ag83
ag343
ag261
aS'king edward iv'
p367
aS'prince edward'
p368
aS'rutland'
p369
aS'clarence'
p370
ag20
aS'george'
p371
ag341
ag263
ag322
aS'hastings'
p372
aS'rivers'
p373
asS'HenryVIPart1'
p374
(lp375
g338
ag20
ag259
aS'beaufort'
p376
ag260
aS'winchester'
p377
ag342
aS'plantagenet'
p378
ag261
ag263
ag223
ag129
aS'talbot'
p379
aS'john talbot'
p380
ag296
ag300
aS'lucy'
p381
aS'bastard of orleans'
p382
aS'edmund mortimer'
p383
aS'glansdale'
p384
aS'gargrave'
p385
aS'woodville'
p386
ag299
aS'bassett'
p387
ag67
aS'reignier'
p388
ag16
aS'alencon'
p389
asS'Titus Andronicus'
p390
(lp391
S'saturnius'
p392
aS'emperor'
p393
aS'bassanius'
p394
aS'titus andronicus'
p395
aS'marcus andronicus'
p396
ag44
aS'quintus'
p397
aS'martius'
p398
ag204
aS'mutius'
p399
aS'young lucius'
p400
ag182
aS'aemilius'
p401
aS'alarbus'
p402
aS'demetrius'
p403
aS'chiron'
p404
aS'aaron'
p405
asS'LovesLaboursLost'
p406
(lp407
g112
aS'berowne'
p408
aS'longaville'
p409
aS'dumain'
p410
aS'boyet,marcade'
p411
aS'don adriano'
p412
aS'sir nathaniel'
p413
aS'holofernes'
p414
aS'dull'
p415
aS'costard'
p416
aS'moth'
p417
asS'Midsummer Nights Dream'
p418
(lp419
S'theseus'
p420
aS'egeus'
p421
aS'lysander'
p422
ag403
aS'philostrate'
p423
aS'quince'
p424
aS'snug'
p425
aS'bottom'
p426
aS'flute'
p427
aS'snout'
p428
aS'starveling'
p429
aS'oberon'
p430
aS'puck'
p431
aS'peaseblossom'
p432
aS'cobweb'
p433
ag417
aS'mustardseed'
p434
asS'MerryWivesOfWindsor'
p435
(lp436
g300
aS'fenton'
p437
aS'shallow'
p438
aS'slender'
p439
aS'ford'
p440
aS'page'
p441
aS'william page'
p442
aS'sir hugh evans'
p443
aS'doctor caius'
p444
ag277
ag276
aS'nym'
p445
aS'robin'
p446
aS'peter simple'
p447
aS'john rugby'
p448
aS'john'
p449
aS'robert'
p450
asS'Measure For Measure'
p451
(lp452
g165
ag10
aS'escalus'
p453
ag99
aS'lucio'
p454
aS'varrus'
p455
aS'friar thomas'
p456
aS'friar peter'
p457
aS'elbow'
p458
aS'froth'
p459
aS'pompey'
p460
aS'abhorson'
p461
aS'barnardine'
p462
asS'Pericles'
p463
(lp464
g269
aS'antiochus'
p465
aS'pericles'
p466
aS'helicanus'
p467
aS'escanes'
p468
aS'simonides'
p469
aS'cleon'
p470
aS'lysimachus'
p471
aS'cerimon'
p472
aS'thaliard'
p473
aS'philemon'
p474
aS'leonine'
p475
aS'boult'
p476
asS'AllsWellThatEndsWell'
p477
(lp478
S'king'
p479
ag27
aS'bertram'
p480
aS'lafeu'
p481
aS'parolles'
p482
aS'rinaldo'
p483
ag157
asS'Macbeth'
p484
(lp485
S'duncan'
p486
aS'malcolm'
p487
aS'donalbain'
p488
aS'macbeth'
p489
aS'banquo'
p490
aS'macduff'
p491
aS'lennox'
p492
ag232
aS'menteith'
p493
aS'angus'
p494
aS'caithness'
p495
aS'fleance'
p496
aS'seyward'
p497
aS'young seyward'
p498
aS'seyton'
p499
asS'Hamlet'
p500
(lp501
S'claudius'
p502
aS'hamlet'
p503
aS'polonius'
p504
aS'horatio'
p505
aS'laertes'
p506
aS'voltemand'
p507
ag254
aS'rosencrantz'
p508
aS'guildenstern'
p509
aS'osrick'
p510
aS'marcellus'
p511
aS'bernardo'
p512
ag115
aS'reynaldo'
p513
aS'fortinbras'
p514
asS'Two Gentlemen of Verona'
p515
(lp516
g27
ag285
aS'proteus'
p517
ag30
aS'thurio'
p518
aS'eglamour'
p519
aS'speed'
p520
aS'launce'
p521
aS'panthino'
p522
asS'AntonyAndCleopatra'
p523
(lp524
S'mark antony'
p525
aS'octavius caesar'
p526
ag180
ag460
aS'domitius enobarbus'
p527
ag47
aS'eros'
p528
ag403
aS'philo'
p529
aS'scarus'
p530
aS'decretas'
p531
aS'canidius'
p532
aS'agrippa'
p533
aS'dolabella'
p534
aS'proculeius'
p535
aS'mecaenas'
p536
aS'thyreus'
p537
aS'gallus'
p538
aS'taurus'
p539
aS'euphronius'
p540
aS'menas'
p541
aS'menecrates'
p542
aS'varrius'
p543
aS'mardian'
p544
aS'alexas'
p545
aS'seleucus'
p546
aS'diomedes'
p547
aS'silius'
p548
asS'Troilus and Cressida'
p549
(lp550
S'priam'
p551
aS'hector'
p552
aS'troilus'
p553
ag82
aS'deiphobus'
p554
aS'helenus'
p555
aS'margarelon'
p556
aS'aeneas'
p557
aS'calchas'
p558
aS'pandarus'
p559
aS'agamemnon'
p560
aS'menelaus'
p561
aS'achilles'
p562
aS'ajax'
p563
aS'ulysses'
p564
aS'nestor'
p565
ag547
aS'patroclus'
p566
asS'Richard III'
p567
(lp568
g367
ag340
aS'king edward v'
p569
ag261
aS'wales'
p570
ag371
ag341
ag370
ag20
aS'edward plantagenet'
p571
aS'richmond'
p572
aS'king henry vii'
p573
aS'bourchier'
p574
ag264
aS'rotherham'
p575
aS'morton'
p576
ag128
ag127
aS'ratcliffe'
p577
aS'catesby'
p578
ag373
aS'dorset'
p579
aS'lord grey'
p580
ag365
ag295
aS'herbert'
p581
ag144
ag372
ag348
aS'vaughan'
p582
aS'tyrrel'
p583
aS'brackenbury'
p584
as.