(dp1
S'ComedyOfErrors'
p2
(dp3
VPRP$
p4
I140
sVVBG
p5
I23
sVFW
p6
I21
sVVBN
p7
I47
sVVBP
p8
I60
sVWDT
p9
I1
sVJJ
p10
I209
sVWP
p11
I22
sVVBZ
p12
I70
sVDT
p13
I163
sVNN
p14
I532
sVVBD
p15
I76
sVPOS
p16
I56
sVTO
p17
I53
sVPRP
p18
I390
sVRB
p19
I173
sVNNS
p20
I66
sVNNP
p21
I77
sVVB
p22
I242
sVWRB
p23
I36
sVCC
p24
I131
sVRBS
p25
I4
sVCD
p26
I8
sVEX
p27
I5
sVIN
p28
I288
sVWP$
p29
I3
sVMD
p30
I58
sVNNPS
p31
I1
sVJJS
p32
I1
sVJJR
p33
I18
sVUH
p34
I9
ssS'King Lear'
p35
(dp36
VPRP$
p37
I229
sVVBG
p38
I23
sVVBD
p39
I55
sVVBN
p40
I62
sVVBP
p41
I133
sVWDT
p42
I11
sVJJ
p43
I251
sVWP
p44
I34
sVVBZ
p45
I88
sVDT
p46
I235
sVNN
p47
I642
sVFW
p48
I28
sVPOS
p49
I105
sVTO
p50
I86
sVPRP
p51
I433
sVRB
p52
I222
sVNNS
p53
I144
sVNNP
p54
I101
sVVB
p55
I271
sVWRB
p56
I32
sVCC
p57
I143
sVRBS
p58
I11
sVRBR
p59
I2
sVCD
p60
I20
sVEX
p61
I3
sVIN
p62
I367
sVWP$
p63
I3
sVMD
p64
I85
sVJJS
p65
I6
sVJJR
p66
I24
sVUH
p67
I10
ssS'MerchantOfVenice'
p68
(dp69
VPRP$
p70
I194
sVVBG
p71
I38
sVVBD
p72
I96
sVVBN
p73
I98
sVVBP
p74
I179
sVWDT
p75
I21
sVJJ
p76
I331
sVWP
p77
I41
sVVBZ
p78
I192
sVDT
p79
I540
sVNN
p80
I960
sVFW
p81
I24
sVPOS
p82
I126
sVTO
p83
I123
sVPRP
p84
I796
sVRB
p85
I358
sVNNS
p86
I148
sVNNP
p87
I197
sVVB
p88
I481
sVWRB
p89
I53
sVCC
p90
I248
sVRBS
p91
I2
sVRBR
p92
I1
sVCD
p93
I42
sVEX
p94
I30
sVIN
p95
I694
sVWP$
p96
I1
sVMD
p97
I156
sVNNPS
p98
I2
sVJJS
p99
I9
sVJJR
p100
I41
sVUH
p101
I15
ssS'Timon of Athens'
p102
(dp103
VVB
p104
I2
sVRB
p105
I3
sVNN
p106
I12
sVVBD
p107
I1
sVRBR
p108
I1
sVWP
p109
I2
sVJJR
p110
I3
sVPOS
p111
I2
sVVBP
p112
I2
sVPRP
p113
I5
sVJJ
p114
I3
sVIN
p115
I4
sVVBZ
p116
I1
sVDT
p117
I5
sVNNP
p118
I3
sVNNS
p119
I1
sVUH
p120
I2
ssS'AsYouLikeIt'
p121
(dp122
VPRP$
p123
I319
sVVBG
p124
I50
sVVBD
p125
I196
sVVBN
p126
I126
sVVBP
p127
I277
sVWDT
p128
I17
sVJJ
p129
I499
sVWP
p130
I67
sVVBZ
p131
I232
sVDT
p132
I675
sVNN
p133
I1372
sVFW
p134
I28
sVPOS
p135
I213
sVTO
p136
I188
sVPRP
p137
I1239
sVRB
p138
I492
sVNNS
p139
I259
sVNNP
p140
I267
sVVB
p141
I598
sVWRB
p142
I94
sVCC
p143
I348
sVRBS
p144
I12
sVRBR
p145
I8
sVCD
p146
I42
sVEX
p147
I30
sVIN
p148
I1029
sVMD
p149
I240
sVNNPS
p150
I2
sVJJS
p151
I11
sVJJR
p152
I50
sVUH
p153
I27
ssS'Romeo and Juliet'
p154
(dp155
VPRP$
p156
I247
sVVBG
p157
I54
sVFW
p158
I51
sVVBN
p159
I108
sVVBP
p160
I211
sVWDT
p161
I21
sVJJ
p162
I541
sVWP
p163
I73
sVVBZ
p164
I218
sVDT
p165
I548
sVNN
p166
I1313
sVVBD
p167
I121
sVPOS
p168
I275
sVTO
p169
I163
sVPRP
p170
I933
sVRB
p171
I444
sVNNS
p172
I180
sVNNP
p173
I359
sVVB
p174
I549
sVWRB
p175
I78
sVCC
p176
I273
sVRBS
p177
I2
sVRBR
p178
I1
sVCD
p179
I47
sVEX
p180
I22
sVIN
p181
I728
sVWP$
p182
I2
sVMD
p183
I199
sVNNPS
p184
I1
sVJJS
p185
I9
sVJJR
p186
I21
sVUH
p187
I34
ssS'Much Ado About Nothing'
p188
(dp189
VPRP$
p190
I167
sVVBG
p191
I37
sVVBD
p192
I92
sVVBN
p193
I81
sVVBP
p194
I126
sVWDT
p195
I11
sVJJ
p196
I251
sVWP
p197
I24
sVVBZ
p198
I143
sVDT
p199
I336
sVNN
p200
I676
sVFW
p201
I8
sVPOS
p202
I83
sVTO
p203
I75
sVPRP
p204
I566
sVRB
p205
I277
sVNNS
p206
I84
sVNNP
p207
I160
sVVB
p208
I280
sVWRB
p209
I45
sVCC
p210
I188
sVRBS
p211
I1
sVRBR
p212
I4
sVCD
p213
I17
sVEX
p214
I15
sVIN
p215
I494
sVMD
p216
I103
sVNNPS
p217
I2
sVJJS
p218
I2
sVJJR
p219
I19
sVUH
p220
I13
ssS'The Tempest'
p221
(dp222
VPRP$
p223
I65
sVVBG
p224
I16
sVFW
p225
I16
sVVBN
p226
I17
sVVBP
p227
I48
sVWDT
p228
I3
sVJJ
p229
I106
sVWP
p230
I9
sVVBZ
p231
I33
sVDT
p232
I98
sVNN
p233
I256
sVVBD
p234
I30
sVPOS
p235
I56
sVTO
p236
I36
sVPRP
p237
I153
sVRB
p238
I81
sVNNS
p239
I63
sVNNP
p240
I49
sVVB
p241
I97
sVWRB
p242
I12
sVCC
p243
I64
sVRBS
p244
I3
sVRBR
p245
I2
sVCD
p246
I5
sVEX
p247
I2
sVIN
p248
I136
sVWP$
p249
I3
sVMD
p250
I29
sVJJS
p251
I2
sVJJR
p252
I6
sVUH
p253
I6
ssS'HenryVIII'
p254
(dp255
VPRP$
p256
I206
sVVBG
p257
I27
sVFW
p258
I39
sVVBN
p259
I64
sVVBP
p260
I120
sVWDT
p261
I11
sVJJ
p262
I251
sVWP
p263
I18
sVVBZ
p264
I64
sVDT
p265
I252
sVNN
p266
I561
sVVBD
p267
I74
sVPOS
p268
I93
sVTO
p269
I83
sVPRP
p270
I389
sVRB
p271
I205
sVNNS
p272
I136
sVNNP
p273
I91
sVVB
p274
I230
sVWRB
p275
I25
sVCC
p276
I131
sVRBS
p277
I7
sVRBR
p278
I3
sVCD
p279
I8
sVEX
p280
I7
sVIN
p281
I349
sVWP$
p282
I4
sVMD
p283
I70
sVJJS
p284
I6
sVJJR
p285
I17
sVUH
p286
I14
ssS"The Winter's Tale"
p287
(dp288
VPRP$
p289
I254
sVVBG
p290
I46
sVVBD
p291
I111
sVVBN
p292
I78
sVVBP
p293
I168
sVWDT
p294
I28
sVJJ
p295
I334
sVWP
p296
I38
sVVBZ
p297
I117
sVDT
p298
I382
sVNN
p299
I897
sVFW
p300
I52
sVPOS
p301
I248
sVTO
p302
I137
sVPRP
p303
I676
sVRB
p304
I341
sVNNS
p305
I165
sVNNP
p306
I125
sVVB
p307
I411
sVWRB
p308
I33
sVCC
p309
I193
sVRBS
p310
I9
sVRBR
p311
I5
sVCD
p312
I28
sVEX
p313
I13
sVIN
p314
I551
sVWP$
p315
I4
sVMD
p316
I126
sVJJS
p317
I15
sVJJR
p318
I35
sVUH
p319
I12
ssS'Taming Of The Shrew'
p320
(dp321
VPRP$
p322
I22
sVVBG
p323
I4
sVVBD
p324
I5
sVVBN
p325
I12
sVVBP
p326
I18
sVWDT
p327
I2
sVJJ
p328
I29
sVWP
p329
I4
sVVBZ
p330
I5
sVDT
p331
I36
sVNN
p332
I94
sVFW
p333
I2
sVPOS
p334
I32
sVTO
p335
I14
sVPRP
p336
I102
sVRB
p337
I40
sVNNS
p338
I22
sVNNP
p339
I27
sVVB
p340
I52
sVWRB
p341
I3
sVCC
p342
I21
sVCD
p343
I2
sVEX
p344
I1
sVIN
p345
I39
sVMD
p346
I14
sVJJS
p347
I1
sVJJR
p348
I2
sVUH
p349
I1
ssS'JuliusCaesar'
p350
(dp351
VPRP$
p352
I39
sVVBG
p353
I7
sVVBD
p354
I26
sVVBN
p355
I23
sVVBP
p356
I28
sVWDT
p357
I6
sVJJ
p358
I41
sVWP
p359
I11
sVVBZ
p360
I28
sVDT
p361
I66
sVNN
p362
I143
sVFW
p363
I9
sVPOS
p364
I22
sVTO
p365
I25
sVPRP
p366
I119
sVRB
p367
I52
sVNNS
p368
I29
sVNNP
p369
I40
sVVB
p370
I66
sVWRB
p371
I7
sVCC
p372
I51
sVRBS
p373
I1
sVCD
p374
I4
sVEX
p375
I4
sVIN
p376
I94
sVMD
p377
I18
sVJJR
p378
I2
sVUH
p379
I2
ssS'Coriolanus'
p380
(dp381
VPRP$
p382
I128
sVVBG
p383
I26
sVVBD
p384
I66
sVVBN
p385
I45
sVVBP
p386
I81
sVWDT
p387
I15
sVJJ
p388
I173
sVWP
p389
I12
sVVBZ
p390
I60
sVDT
p391
I235
sVNN
p392
I488
sVFW
p393
I17
sVPOS
p394
I103
sVTO
p395
I73
sVPRP
p396
I392
sVRB
p397
I179
sVNNS
p398
I98
sVNNP
p399
I100
sVVB
p400
I229
sVWRB
p401
I30
sVCC
p402
I111
sVRBS
p403
I4
sVRBR
p404
I5
sVCD
p405
I10
sVEX
p406
I9
sVIN
p407
I336
sVWP$
p408
I2
sVMD
p409
I81
sVNNPS
p410
I2
sVJJS
p411
I2
sVJJR
p412
I21
sVUH
p413
I7
ssS'Richard II'
p414
(dp415
VPRP$
p416
I45
sVVBG
p417
I18
sVVBD
p418
I15
sVVBN
p419
I20
sVVBP
p420
I31
sVWDT
p421
I3
sVJJ
p422
I104
sVWP
p423
I16
sVVBZ
p424
I48
sVDT
p425
I92
sVNN
p426
I292
sVFW
p427
I13
sVPOS
p428
I49
sVTO
p429
I35
sVPRP
p430
I139
sVRB
p431
I77
sVNNS
p432
I34
sVNNP
p433
I60
sVVB
p434
I95
sVWRB
p435
I19
sVCC
p436
I50
sVRBS
p437
I2
sVRBR
p438
I1
sVCD
p439
I10
sVEX
p440
I4
sVIN
p441
I134
sVWP$
p442
I1
sVMD
p443
I32
sVJJS
p444
I4
sVJJR
p445
I9
sVUH
p446
I4
ssS'Cymbeline'
p447
(dp448
VPRP$
p449
I224
sVVBG
p450
I46
sVFW
p451
I46
sVVBN
p452
I112
sVVBP
p453
I161
sVWDT
p454
I17
sVJJ
p455
I370
sVWP
p456
I50
sVVBZ
p457
I133
sVDT
p458
I409
sVNN
p459
I985
sVVBD
p460
I120
sVPOS
p461
I239
sVTO
p462
I152
sVPRP
p463
I731
sVRB
p464
I336
sVNNS
p465
I197
sVNNP
p466
I189
sVVB
p467
I410
sVWRB
p468
I71
sVCC
p469
I211
sVRBS
p470
I8
sVRBR
p471
I1
sVCD
p472
I21
sVEX
p473
I12
sVIN
p474
I573
sVWP$
p475
I4
sVMD
p476
I122
sVNNPS
p477
I3
sVJJS
p478
I16
sVJJR
p479
I34
sVUH
p480
I14
ssS'HenryV'
p481
(dp482
VMD
p483
I1
sVVB
p484
I4
sVRB
p485
I1
sVNN
p486
I60
sVFW
p487
I50
sVPOS
p488
I5
sVVBP
p489
I1
sVPRP
p490
I2
sVJJ
p491
I4
sVIN
p492
I5
sVVBZ
p493
I5
sVDT
p494
I3
sVPRP$
p495
I1
sVNNS
p496
I15
sVNNP
p497
I16
ssS'Twelfth Night'
p498
(dp499
VPRP$
p500
I278
sVVBG
p501
I35
sVVBD
p502
I94
sVVBN
p503
I92
sVVBP
p504
I196
sVWDT
p505
I7
sVJJ
p506
I373
sVWP
p507
I74
sVVBZ
p508
I174
sVDT
p509
I432
sVNN
p510
I1112
sVFW
p511
I24
sVPOS
p512
I156
sVTO
p513
I123
sVPRP
p514
I875
sVRB
p515
I349
sVNNS
p516
I136
sVNNP
p517
I174
sVVB
p518
I446
sVWRB
p519
I55
sVCC
p520
I202
sVRBS
p521
I8
sVRBR
p522
I3
sVCD
p523
I23
sVEX
p524
I13
sVIN
p525
I687
sVWP$
p526
I3
sVMD
p527
I155
sVNNPS
p528
I1
sVJJS
p529
I12
sVJJR
p530
I24
sVUH
p531
I18
ssS'HenryIV'
p532
(dp533
VPRP$
p534
I11
sVVBG
p535
I2
sVVBD
p536
I4
sVVBN
p537
I10
sVVBP
p538
I16
sVJJ
p539
I27
sVWP
p540
I5
sVVBZ
p541
I12
sVDT
p542
I20
sVNN
p543
I66
sVFW
p544
I6
sVPOS
p545
I15
sVTO
p546
I4
sVPRP
p547
I58
sVRB
p548
I33
sVNNS
p549
I25
sVNNP
p550
I11
sVVB
p551
I34
sVWRB
p552
I6
sVCC
p553
I19
sVIN
p554
I53
sVMD
p555
I7
sVUH
p556
I1
ssS'Othello'
p557
(dp558
VPRP$
p559
I243
sVVBG
p560
I29
sVFW
p561
I29
sVVBN
p562
I58
sVVBP
p563
I201
sVWDT
p564
I2
sVJJ
p565
I336
sVWP
p566
I59
sVVBZ
p567
I110
sVDT
p568
I317
sVNN
p569
I797
sVVBD
p570
I112
sVPOS
p571
I146
sVTO
p572
I97
sVPRP
p573
I702
sVRB
p574
I298
sVNNS
p575
I117
sVNNP
p576
I192
sVVB
p577
I359
sVWRB
p578
I55
sVCC
p579
I193
sVRBS
p580
I7
sVRBR
p581
I2
sVCD
p582
I17
sVEX
p583
I13
sVIN
p584
I426
sVWP$
p585
I1
sVMD
p586
I115
sVJJS
p587
I9
sVJJR
p588
I9
sVUH
p589
I33
ssS'King John'
p590
(dp591
VPRP$
p592
I125
sVVBG
p593
I21
sVFW
p594
I17
sVVBN
p595
I53
sVVBP
p596
I70
sVWDT
p597
I17
sVJJ
p598
I225
sVWP
p599
I17
sVVBZ
p600
I73
sVDT
p601
I229
sVNN
p602
I583
sVVBD
p603
I38
sVPOS
p604
I65
sVTO
p605
I75
sVPRP
p606
I316
sVRB
p607
I155
sVNNS
p608
I101
sVNNP
p609
I111
sVVB
p610
I216
sVWRB
p611
I17
sVCC
p612
I132
sVRBS
p613
I2
sVCD
p614
I3
sVEX
p615
I8
sVIN
p616
I322
sVMD
p617
I93
sVJJR
p618
I7
sVUH
p619
I6
ssS'HenryVIPart2'
p620
(dp621
VPRP$
p622
I149
sVVBG
p623
I31
sVVBD
p624
I71
sVVBN
p625
I62
sVVBP
p626
I77
sVWDT
p627
I3
sVJJ
p628
I240
sVWP
p629
I31
sVVBZ
p630
I80
sVDT
p631
I272
sVNN
p632
I630
sVFW
p633
I27
sVPOS
p634
I120
sVTO
p635
I73
sVPRP
p636
I385
sVRB
p637
I162
sVNNS
p638
I122
sVNNP
p639
I177
sVVB
p640
I260
sVWRB
p641
I41
sVCC
p642
I181
sVRBS
p643
I2
sVRBR
p644
I2
sVCD
p645
I18
sVEX
p646
I5
sVIN
p647
I376
sVWP$
p648
I2
sVMD
p649
I83
sVNNPS
p650
I1
sVJJS
p651
I5
sVJJR
p652
I16
sVUH
p653
I11
ssS'HenryVIPart3'
p654
(dp655
VPRP$
p656
I134
sVVBG
p657
I11
sVVBD
p658
I49
sVVBN
p659
I51
sVVBP
p660
I55
sVWDT
p661
I5
sVJJ
p662
I209
sVWP
p663
I24
sVVBZ
p664
I65
sVDT
p665
I183
sVNN
p666
I495
sVFW
p667
I30
sVPOS
p668
I92
sVTO
p669
I77
sVPRP
p670
I293
sVRB
p671
I160
sVNNS
p672
I120
sVNNP
p673
I167
sVVB
p674
I219
sVWRB
p675
I27
sVCC
p676
I153
sVRBS
p677
I1
sVRBR
p678
I1
sVCD
p679
I4
sVEX
p680
I5
sVIN
p681
I295
sVMD
p682
I63
sVNNPS
p683
I3
sVJJS
p684
I3
sVJJR
p685
I10
sVUH
p686
I11
ssS'HenryVIPart1'
p687
(dp688
VPRP$
p689
I77
sVVBG
p690
I17
sVVBD
p691
I30
sVVBN
p692
I47
sVVBP
p693
I53
sVWDT
p694
I8
sVJJ
p695
I158
sVWP
p696
I12
sVVBZ
p697
I44
sVDT
p698
I177
sVNN
p699
I390
sVFW
p700
I25
sVPOS
p701
I67
sVTO
p702
I53
sVPRP
p703
I235
sVRB
p704
I109
sVNNS
p705
I93
sVNNP
p706
I122
sVVB
p707
I181
sVWRB
p708
I14
sVCC
p709
I97
sVRBS
p710
I2
sVCD
p711
I5
sVEX
p712
I3
sVIN
p713
I256
sVWP$
p714
I1
sVMD
p715
I53
sVNNPS
p716
I1
sVJJS
p717
I1
sVJJR
p718
I4
sVUH
p719
I3
ssS'Titus Andronicus'
p720
(dp721
VPRP$
p722
I115
sVVBG
p723
I15
sVVBD
p724
I42
sVVBN
p725
I40
sVVBP
p726
I62
sVWDT
p727
I2
sVJJ
p728
I235
sVWP
p729
I11
sVVBZ
p730
I41
sVDT
p731
I186
sVNN
p732
I397
sVFW
p733
I17
sVPOS
p734
I59
sVTO
p735
I60
sVPRP
p736
I248
sVRB
p737
I137
sVNNS
p738
I112
sVNNP
p739
I117
sVVB
p740
I199
sVWRB
p741
I21
sVCC
p742
I118
sVRBR
p743
I1
sVCD
p744
I9
sVEX
p745
I1
sVIN
p746
I232
sVWP$
p747
I3
sVMD
p748
I49
sVJJS
p749
I5
sVJJR
p750
I9
sVUH
p751
I6
ssS'LovesLaboursLost'
p752
(dp753
VPRP$
p754
I86
sVVBG
p755
I18
sVVBD
p756
I64
sVVBN
p757
I35
sVVBP
p758
I45
sVWDT
p759
I5
sVJJ
p760
I162
sVWP
p761
I12
sVVBZ
p762
I50
sVDT
p763
I180
sVNN
p764
I351
sVFW
p765
I10
sVPOS
p766
I59
sVTO
p767
I40
sVPRP
p768
I257
sVRB
p769
I137
sVNNS
p770
I80
sVNNP
p771
I78
sVVB
p772
I144
sVWRB
p773
I14
sVCC
p774
I78
sVRBS
p775
I4
sVCD
p776
I17
sVEX
p777
I2
sVIN
p778
I236
sVWP$
p779
I3
sVMD
p780
I41
sVJJS
p781
I3
sVJJR
p782
I10
sVUH
p783
I10
ssS'Midsummer Nights Dream'
p784
(dp785
VPRP$
p786
I187
sVVBG
p787
I33
sVFW
p788
I37
sVVBN
p789
I73
sVVBP
p790
I147
sVWDT
p791
I8
sVJJ
p792
I329
sVWP
p793
I30
sVVBZ
p794
I109
sVDT
p795
I320
sVNN
p796
I749
sVVBD
p797
I73
sVPOS
p798
I97
sVTO
p799
I93
sVPRP
p800
I509
sVRB
p801
I302
sVNNS
p802
I177
sVNNP
p803
I188
sVVB
p804
I306
sVWRB
p805
I49
sVCC
p806
I205
sVRBS
p807
I2
sVRBR
p808
I3
sVCD
p809
I23
sVEX
p810
I1
sVIN
p811
I485
sVWP$
p812
I1
sVMD
p813
I99
sVNNPS
p814
I1
sVJJS
p815
I7
sVJJR
p816
I22
sVUH
p817
I12
ssS'MerryWivesOfWindsor'
p818
(dp819
VPRP$
p820
I246
sVVBG
p821
I32
sVVBD
p822
I90
sVVBN
p823
I84
sVVBP
p824
I171
sVWDT
p825
I6
sVJJ
p826
I396
sVWP
p827
I60
sVVBZ
p828
I169
sVDT
p829
I465
sVNN
p830
I1026
sVFW
p831
I10
sVPOS
p832
I175
sVTO
p833
I124
sVPRP
p834
I866
sVRB
p835
I366
sVNNS
p836
I149
sVNNP
p837
I318
sVVB
p838
I456
sVWRB
p839
I59
sVCC
p840
I256
sVRBS
p841
I4
sVRBR
p842
I1
sVCD
p843
I46
sVEX
p844
I29
sVIN
p845
I650
sVWP$
p846
I1
sVMD
p847
I167
sVNNPS
p848
I1
sVJJS
p849
I10
sVJJR
p850
I32
sVUH
p851
I34
ssS'Measure For Measure'
p852
(dp853
VPRP$
p854
I173
sVVBG
p855
I23
sVVBD
p856
I75
sVVBN
p857
I54
sVVBP
p858
I117
sVWDT
p859
I16
sVJJ
p860
I251
sVWP
p861
I37
sVVBZ
p862
I113
sVDT
p863
I297
sVNN
p864
I704
sVFW
p865
I30
sVPOS
p866
I130
sVTO
p867
I82
sVPRP
p868
I497
sVRB
p869
I203
sVNNS
p870
I82
sVNNP
p871
I130
sVVB
p872
I268
sVWRB
p873
I26
sVCC
p874
I157
sVRBS
p875
I15
sVRBR
p876
I1
sVCD
p877
I23
sVEX
p878
I13
sVIN
p879
I430
sVWP$
p880
I7
sVMD
p881
I97
sVJJS
p882
I8
sVJJR
p883
I19
sVUH
p884
I22
ssS'Pericles'
p885
(dp886
VPRP$
p887
I129
sVVBG
p888
I24
sVFW
p889
I28
sVVBN
p890
I50
sVVBP
p891
I90
sVWDT
p892
I7
sVJJ
p893
I158
sVWP
p894
I26
sVVBZ
p895
I60
sVDT
p896
I211
sVNN
p897
I462
sVVBD
p898
I77
sVPOS
p899
I95
sVTO
p900
I67
sVPRP
p901
I324
sVRB
p902
I136
sVNNS
p903
I87
sVNNP
p904
I78
sVVB
p905
I188
sVWRB
p906
I28
sVCC
p907
I105
sVRBS
p908
I1
sVRBR
p909
I1
sVCD
p910
I9
sVEX
p911
I4
sVIN
p912
I261
sVWP$
p913
I2
sVMD
p914
I65
sVNNPS
p915
I1
sVJJS
p916
I5
sVJJR
p917
I16
sVUH
p918
I7
ssS'AllsWellThatEndsWell'
p919
(dp920
VPRP$
p921
I363
sVVBG
p922
I37
sVVBD
p923
I134
sVVBN
p924
I132
sVVBP
p925
I220
sVWDT
p926
I31
sVJJ
p927
I446
sVWP
p928
I52
sVVBZ
p929
I230
sVDT
p930
I516
sVNN
p931
I1191
sVFW
p932
I37
sVPOS
p933
I210
sVTO
p934
I145
sVPRP
p935
I943
sVRB
p936
I413
sVNNS
p937
I188
sVNNP
p938
I172
sVVB
p939
I498
sVWRB
p940
I70
sVCC
p941
I261
sVPDT
p942
I1
sVRBS
p943
I18
sVRBR
p944
I3
sVCD
p945
I32
sVEX
p946
I20
sVIN
p947
I676
sVWP$
p948
I7
sVMD
p949
I181
sVNNPS
p950
I1
sVJJS
p951
I19
sVJJR
p952
I29
sVUH
p953
I15
ssS'Macbeth'
p954
(dp955
VPRP$
p956
I114
sVVBG
p957
I21
sVVBD
p958
I66
sVVBN
p959
I64
sVVBP
p960
I84
sVWDT
p961
I15
sVJJ
p962
I192
sVWP
p963
I34
sVVBZ
p964
I90
sVDT
p965
I282
sVNN
p966
I554
sVFW
p967
I28
sVPOS
p968
I146
sVTO
p969
I68
sVPRP
p970
I341
sVRB
p971
I157
sVNNS
p972
I114
sVNNP
p973
I106
sVVB
p974
I237
sVWRB
p975
I44
sVCC
p976
I138
sVRBS
p977
I2
sVRBR
p978
I1
sVCD
p979
I13
sVEX
p980
I5
sVIN
p981
I309
sVMD
p982
I62
sVJJS
p983
I5
sVJJR
p984
I12
sVUH
p985
I9
ssS'Hamlet'
p986
(dp987
VPRP$
p988
I84
sVVBG
p989
I5
sVVBD
p990
I26
sVVBN
p991
I32
sVVBP
p992
I33
sVWDT
p993
I1
sVJJ
p994
I79
sVWP
p995
I11
sVVBZ
p996
I35
sVDT
p997
I89
sVNN
p998
I225
sVFW
p999
I15
sVPOS
p1000
I44
sVTO
p1001
I23
sVPRP
p1002
I150
sVRB
p1003
I50
sVNNS
p1004
I33
sVNNP
p1005
I52
sVVB
p1006
I75
sVWRB
p1007
I7
sVCC
p1008
I54
sVRBS
p1009
I2
sVCD
p1010
I2
sVEX
p1011
I6
sVIN
p1012
I116
sVMD
p1013
I24
sVNNPS
p1014
I1
sVJJR
p1015
I7
sVUH
p1016
I6
ssS'Two Gentlemen of Verona'
p1017
(dp1018
VPRP$
p1019
I135
sVVBG
p1020
I17
sVVBD
p1021
I58
sVVBN
p1022
I45
sVVBP
p1023
I83
sVWDT
p1024
I9
sVJJ
p1025
I183
sVWP
p1026
I26
sVVBZ
p1027
I81
sVDT
p1028
I200
sVNN
p1029
I507
sVFW
p1030
I19
sVPOS
p1031
I99
sVTO
p1032
I74
sVPRP
p1033
I399
sVRB
p1034
I206
sVNNS
p1035
I87
sVNNP
p1036
I110
sVVB
p1037
I217
sVWRB
p1038
I37
sVCC
p1039
I97
sVRBS
p1040
I3
sVRBR
p1041
I1
sVCD
p1042
I8
sVEX
p1043
I4
sVIN
p1044
I317
sVMD
p1045
I87
sVJJS
p1046
I12
sVJJR
p1047
I11
sVUH
p1048
I12
ssS'AntonyAndCleopatra'
p1049
(dp1050
VPRP$
p1051
I211
sVVBG
p1052
I42
sVVBD
p1053
I104
sVVBN
p1054
I82
sVVBP
p1055
I164
sVWDT
p1056
I16
sVJJ
p1057
I366
sVWP
p1058
I43
sVVBZ
p1059
I128
sVDT
p1060
I381
sVNN
p1061
I905
sVFW
p1062
I39
sVPOS
p1063
I217
sVTO
p1064
I106
sVPRP
p1065
I732
sVRB
p1066
I336
sVNNS
p1067
I204
sVNNP
p1068
I332
sVVB
p1069
I490
sVWRB
p1070
I57
sVCC
p1071
I211
sVRBS
p1072
I16
sVCD
p1073
I14
sVEX
p1074
I22
sVIN
p1075
I509
sVMD
p1076
I130
sVNNPS
p1077
I2
sVJJS
p1078
I14
sVJJR
p1079
I27
sVUH
p1080
I17
ssS'Troilus and Cressida'
p1081
(dp1082
VPRP$
p1083
I95
sVVBG
p1084
I26
sVVBD
p1085
I47
sVVBN
p1086
I24
sVVBP
p1087
I84
sVWDT
p1088
I1
sVJJ
p1089
I181
sVWP
p1090
I29
sVVBZ
p1091
I74
sVDT
p1092
I174
sVNN
p1093
I434
sVFW
p1094
I15
sVPOS
p1095
I89
sVTO
p1096
I53
sVPRP
p1097
I354
sVRB
p1098
I176
sVNNS
p1099
I88
sVNNP
p1100
I145
sVVB
p1101
I195
sVWRB
p1102
I31
sVCC
p1103
I98
sVRBR
p1104
I1
sVCD
p1105
I15
sVEX
p1106
I4
sVIN
p1107
I262
sVWP$
p1108
I1
sVMD
p1109
I74
sVNNPS
p1110
I4
sVJJS
p1111
I1
sVJJR
p1112
I24
sVUH
p1113
I13
ssS'Richard III'
p1114
(dp1115
VPRP$
p1116
I230
sVVBG
p1117
I49
sVVBD
p1118
I97
sVVBN
p1119
I64
sVVBP
p1120
I112
sVWDT
p1121
I15
sVJJ
p1122
I415
sVWP
p1123
I40
sVVBZ
p1124
I98
sVDT
p1125
I338
sVNN
p1126
I925
sVFW
p1127
I71
sVPOS
p1128
I155
sVTO
p1129
I130
sVPRP
p1130
I569
sVRB
p1131
I239
sVNNS
p1132
I205
sVNNP
p1133
I228
sVVB
p1134
I361
sVWRB
p1135
I42
sVCC
p1136
I201
sVRBS
p1137
I4
sVRBR
p1138
I1
sVCD
p1139
I18
sVEX
p1140
I5
sVIN
p1141
I530
sVWP$
p1142
I6
sVMD
p1143
I81
sVNNPS
p1144
I5
sVJJS
p1145
I4
sVJJR
p1146
I15
sVUH
p1147
I16
ss.