(dp1
S'ComedyOfErrors'
p2
F0.0975476165180858
sS'King Lear'
p3
F0.13550659974689117
sS'MerchantOfVenice'
p4
F0.13476635842987425
sS'Timon of Athens'
p5
F0.16118367499164096
sS'AsYouLikeIt'
p6
F0.15841986994060694
sS'Romeo and Juliet'
p7
F0.15320416830445943
sS'Much Ado About Nothing'
p8
F0.14220574405623407
sS'The Tempest'
p9
F0.12285097125051274
sS'HenryVIII'
p10
F0.15132500984232683
sS"The Winter's Tale"
p11
F0.12816921447247026
sS'Taming Of The Shrew'
p12
F0.14487697027328353
sS'JuliusCaesar'
p13
F0.1298480250587247
sS'Coriolanus'
p14
F0.12960625700252171
sS'Richard II'
p15
F0.14235224384874373
sS'Cymbeline'
p16
F0.13598942462050922
sS'HenryV'
p17
F0.13453962584828175
sS'Twelfth Night'
p18
F0.14768764315921687
sS'HenryIV'
p19
F0.12586355052230355
sS'Othello'
p20
F0.15194250942737189
sS'King John'
p21
F0.1412132935747959
sS'HenryVIPart2'
p22
F0.13251288847879772
sS'HenryVIPart3'
p23
F0.13823653578230594
sS'HenryVIPart1'
p24
F0.13280111751385615
sS'Titus Andronicus'
p25
F0.1405922406094107
sS'LovesLaboursLost'
p26
F0.1290747217366964
sS'Midsummer Nights Dream'
p27
F0.13473188529969851
sS'MerryWivesOfWindsor'
p28
F0.13016521405944478
sS'Measure For Measure'
p29
F0.13032745190287773
sS'Pericles'
p30
F0.1233169666084851
sS'AllsWellThatEndsWell'
p31
F0.1491169729509404
sS'Macbeth'
p32
F0.13991208162302907
sS'Hamlet'
p33
F0.12347763441348455
sS'Two Gentlemen of Verona'
p34
F0.15350993503988283
sS'AntonyAndCleopatra'
p35
F0.12621192092475159
sS'Troilus and Cressida'
p36
F0.14894565840109067
sS'Richard III'
p37
F0.15061750031317017
s.