(dp1
S'ComedyOfErrors'
p2
F0.17688549788738575
sS'King Lear'
p3
F0.21280091763684009
sS'MerchantOfVenice'
p4
F0.22433282074570179
sS'Timon of Athens'
p5
F0.251138756747113
sS'AsYouLikeIt'
p6
F0.24651352789190167
sS'Romeo and Juliet'
p7
F0.24709812156767727
sS'Much Ado About Nothing'
p8
F0.22967960507176169
sS'The Tempest'
p9
F0.19810480811720269
sS'HenryVIII'
p10
F0.24040638471369549
sS"The Winter's Tale"
p11
F0.20268922562189662
sS'Taming Of The Shrew'
p12
F0.22717229016076934
sS'JuliusCaesar'
p13
F0.21418732818664657
sS'Coriolanus'
p14
F0.20846851696164817
sS'Richard II'
p15
F0.23197945354645363
sS'Cymbeline'
p16
F0.21866361059439643
sS'HenryV'
p17
F0.20517748922551243
sS'Twelfth Night'
p18
F0.22089178141135957
sS'HenryIV'
p19
F0.20989657486534957
sS'Othello'
p20
F0.24346354180987181
sS'King John'
p21
F0.22743057077681453
sS'HenryVIPart2'
p22
F0.21283956624865705
sS'HenryVIPart3'
p23
F0.21799790609923145
sS'HenryVIPart1'
p24
F0.21673550191446622
sS'Titus Andronicus'
p25
F0.23022431554505707
sS'LovesLaboursLost'
p26
F0.20634445527333453
sS'Midsummer Nights Dream'
p27
F0.21365454290346209
sS'MerryWivesOfWindsor'
p28
F0.19708935642969633
sS'Measure For Measure'
p29
F0.20626809457101417
sS'Pericles'
p30
F0.20236911746236788
sS'AllsWellThatEndsWell'
p31
F0.22747360291619059
sS'Macbeth'
p32
F0.21774308165633374
sS'Hamlet'
p33
F0.1957874154930081
sS'Two Gentlemen of Verona'
p34
F0.22829991495947927
sS'AntonyAndCleopatra'
p35
F0.19332794620331359
sS'Troilus and Cressida'
p36
F0.23133588384044065
sS'Richard III'
p37
F0.23605320484405443
s.