(dp1
S'ComedyOfErrors'
p2
(dp3
VPRP$
p4
I299
sVVBG
p5
I49
sVVBD
p6
I202
sVVBN
p7
I119
sVVBP
p8
I167
sVWDT
p9
I10
sVJJ
p10
I389
sVWP
p11
I64
sVVBZ
p12
I119
sVDT
p13
I511
sVNN
p14
I1325
sVFW
p15
I55
sVPOS
p16
I201
sVTO
p17
I172
sVPRP
p18
I1043
sVRB
p19
I378
sVNNS
p20
I187
sVNNP
p21
I180
sVVB
p22
I501
sVWRB
p23
I68
sVCC
p24
I291
sVRBS
p25
I7
sVRBR
p26
I3
sVCD
p27
I39
sVEX
p28
I37
sVIN
p29
I775
sVMD
p30
I120
sVNNPS
p31
I1
sVJJS
p32
I5
sVJJR
p33
I23
sVUH
p34
I14
ssS'King Lear'
p35
(dp36
VPRP$
p37
I848
sVVBG
p38
I126
sVVBD
p39
I318
sVVBN
p40
I322
sVVBP
p41
I528
sVWDT
p42
I57
sVJJ
p43
I1298
sVWP
p44
I175
sVVBZ
p45
I419
sVDT
p46
I1518
sVNN
p47
I3519
sVFW
p48
I139
sVPOS
p49
I629
sVTO
p50
I393
sVPRP
p51
I2229
sVRB
p52
I948
sVNNS
p53
I696
sVNNP
p54
I588
sVVB
p55
I1499
sVWRB
p56
I193
sVCC
p57
I665
sVRBS
p58
I26
sVRBR
p59
I4
sVCD
p60
I71
sVEX
p61
I59
sVIN
p62
I1827
sVWP$
p63
I20
sVMD
p64
I379
sVNNPS
p65
I2
sVJJS
p66
I51
sVJJR
p67
I113
sVUH
p68
I49
ssS'MerchantOfVenice'
p69
(dp70
VPRP$
p71
I518
sVVBG
p72
I114
sVVBD
p73
I230
sVVBN
p74
I202
sVVBP
p75
I383
sVWDT
p76
I34
sVJJ
p77
I829
sVWP
p78
I117
sVVBZ
p79
I340
sVDT
p80
I1136
sVNN
p81
I2196
sVFW
p82
I86
sVPOS
p83
I334
sVTO
p84
I291
sVPRP
p85
I1533
sVRB
p86
I674
sVNNS
p87
I392
sVNNP
p88
I505
sVVB
p89
I1029
sVWRB
p90
I119
sVCC
p91
I519
sVRBS
p92
I11
sVRBR
p93
I4
sVCD
p94
I108
sVEX
p95
I41
sVIN
p96
I1460
sVWP$
p97
I8
sVMD
p98
I314
sVNNPS
p99
I5
sVJJS
p100
I22
sVJJR
p101
I59
sVUH
p102
I48
ssS'Timon of Athens'
p103
(dp104
VPRP$
p105
I330
sVVBG
p106
I61
sVFW
p107
I58
sVVBN
p108
I126
sVVBP
p109
I204
sVWDT
p110
I22
sVJJ
p111
I591
sVWP
p112
I79
sVVBZ
p113
I250
sVDT
p114
I573
sVNN
p115
I1430
sVVBD
p116
I130
sVPOS
p117
I325
sVTO
p118
I193
sVPRP
p119
I932
sVRB
p120
I455
sVNNS
p121
I358
sVNNP
p122
I302
sVVB
p123
I503
sVWRB
p124
I76
sVCC
p125
I303
sVRBS
p126
I12
sVRBR
p127
I5
sVCD
p128
I37
sVEX
p129
I19
sVIN
p130
I764
sVWP$
p131
I11
sVMD
p132
I169
sVNNPS
p133
I3
sVJJS
p134
I24
sVJJR
p135
I42
sVUH
p136
I26
ssS'AsYouLikeIt'
p137
(dp138
VPRP$
p139
I440
sVVBG
p140
I107
sVVBD
p141
I250
sVVBN
p142
I189
sVVBP
p143
I322
sVWDT
p144
I36
sVJJ
p145
I839
sVWP
p146
I82
sVVBZ
p147
I344
sVDT
p148
I1019
sVNN
p149
I2008
sVFW
p150
I47
sVPOS
p151
I247
sVTO
p152
I247
sVPRP
p153
I1478
sVRB
p154
I712
sVNNS
p155
I371
sVNNP
p156
I334
sVVB
p157
I762
sVWRB
p158
I104
sVCC
p159
I548
sVRBS
p160
I18
sVRBR
p161
I9
sVCD
p162
I61
sVEX
p163
I30
sVIN
p164
I1371
sVWP$
p165
I5
sVMD
p166
I277
sVNNPS
p167
I3
sVJJS
p168
I22
sVJJR
p169
I84
sVUH
p170
I25
ssS'Romeo and Juliet'
p171
(dp172
VPRP$
p173
I562
sVVBG
p174
I148
sVVBD
p175
I253
sVVBN
p176
I273
sVVBP
p177
I304
sVWDT
p178
I33
sVJJ
p179
I1232
sVWP
p180
I134
sVVBZ
p181
I465
sVDT
p182
I1225
sVNN
p183
I2898
sVFW
p184
I108
sVPOS
p185
I523
sVTO
p186
I334
sVPRP
p187
I1696
sVRB
p188
I846
sVNNS
p189
I556
sVNNP
p190
I581
sVVB
p191
I1159
sVWRB
p192
I122
sVCC
p193
I615
sVRBS
p194
I11
sVRBR
p195
I7
sVCD
p196
I76
sVEX
p197
I45
sVIN
p198
I1694
sVWP$
p199
I10
sVMD
p200
I330
sVNNPS
p201
I2
sVJJS
p202
I24
sVJJR
p203
I71
sVUH
p204
I65
ssS'Much Ado About Nothing'
p205
(dp206
VPRP$
p207
I671
sVVBG
p208
I96
sVVBD
p209
I357
sVVBN
p210
I257
sVVBP
p211
I483
sVWDT
p212
I42
sVJJ
p213
I917
sVWP
p214
I116
sVVBZ
p215
I432
sVDT
p216
I1310
sVNN
p217
I2574
sVFW
p218
I38
sVPOS
p219
I346
sVTO
p220
I338
sVPRP
p221
I2182
sVRB
p222
I920
sVNNS
p223
I354
sVNNP
p224
I585
sVVB
p225
I1195
sVWRB
p226
I138
sVCC
p227
I621
sVRBS
p228
I20
sVRBR
p229
I1
sVCD
p230
I82
sVEX
p231
I43
sVIN
p232
I1765
sVWP$
p233
I6
sVMD
p234
I489
sVNNPS
p235
I2
sVJJS
p236
I14
sVJJR
p237
I53
sVUH
p238
I62
ssS'The Tempest'
p239
(dp240
VPRP$
p241
I551
sVVBG
p242
I134
sVFW
p243
I111
sVVBN
p244
I240
sVVBP
p245
I403
sVWDT
p246
I67
sVJJ
p247
I966
sVWP
p248
I122
sVVBZ
p249
I291
sVDT
p250
I1232
sVNN
p251
I2614
sVVBD
p252
I298
sVPOS
p253
I512
sVTO
p254
I264
sVPRP
p255
I1745
sVRB
p256
I811
sVNNS
p257
I510
sVNNP
p258
I441
sVVB
p259
I1031
sVWRB
p260
I135
sVCC
p261
I585
sVRBS
p262
I36
sVRBR
p263
I2
sVCD
p264
I75
sVEX
p265
I53
sVIN
p266
I1511
sVWP$
p267
I13
sVMD
p268
I300
sVJJS
p269
I31
sVJJR
p270
I74
sVUH
p271
I52
ssS'HenryVIII'
p272
(dp273
VPRP$
p274
I792
sVVBG
p275
I123
sVFW
p276
I125
sVVBN
p277
I256
sVVBP
p278
I405
sVWDT
p279
I54
sVJJ
p280
I1114
sVWP
p281
I127
sVVBZ
p282
I354
sVDT
p283
I1446
sVNN
p284
I2744
sVVBD
p285
I345
sVPOS
p286
I571
sVTO
p287
I407
sVPRP
p288
I1820
sVRB
p289
I822
sVNNS
p290
I578
sVNNP
p291
I533
sVVB
p292
I1099
sVWRB
p293
I122
sVCC
p294
I603
sVRBS
p295
I26
sVRBR
p296
I10
sVCD
p297
I75
sVEX
p298
I54
sVIN
p299
I1734
sVWP$
p300
I8
sVMD
p301
I374
sVNNPS
p302
I2
sVJJS
p303
I43
sVJJR
p304
I71
sVUH
p305
I44
ssS"The Winter's Tale"
p306
(dp307
VPRP$
p308
I734
sVVBG
p309
I160
sVVBD
p310
I341
sVVBN
p311
I332
sVVBP
p312
I513
sVWDT
p313
I72
sVJJ
p314
I1088
sVWP
p315
I132
sVVBZ
p316
I386
sVDT
p317
I1384
sVNN
p318
I2866
sVFW
p319
I108
sVPOS
p320
I566
sVTO
p321
I420
sVPRP
p322
I1991
sVRB
p323
I981
sVNNS
p324
I537
sVNNP
p325
I349
sVVB
p326
I1207
sVWRB
p327
I144
sVCC
p328
I686
sVRBS
p329
I33
sVRBR
p330
I10
sVCD
p331
I98
sVEX
p332
I62
sVIN
p333
I1805
sVWP$
p334
I22
sVMD
p335
I401
sVJJS
p336
I43
sVJJR
p337
I107
sVUH
p338
I34
ssS'Taming Of The Shrew'
p339
(dp340
VPRP$
p341
I703
sVVBG
p342
I110
sVVBD
p343
I265
sVVBN
p344
I253
sVVBP
p345
I458
sVWDT
p346
I19
sVJJ
p347
I1023
sVWP
p348
I140
sVVBZ
p349
I425
sVDT
p350
I1254
sVNN
p351
I2798
sVFW
p352
I108
sVPOS
p353
I548
sVTO
p354
I413
sVPRP
p355
I2131
sVRB
p356
I1037
sVNNS
p357
I474
sVNNP
p358
I883
sVVB
p359
I1346
sVWRB
p360
I194
sVCC
p361
I802
sVPDT
p362
I1
sVRBS
p363
I6
sVRBR
p364
I2
sVCD
p365
I98
sVEX
p366
I26
sVIN
p367
I1656
sVWP$
p368
I5
sVMD
p369
I373
sVNNPS
p370
I2
sVJJS
p371
I40
sVJJR
p372
I85
sVUH
p373
I54
ssS'JuliusCaesar'
p374
(dp375
VPRP$
p376
I534
sVVBG
p377
I124
sVVBD
p378
I375
sVVBN
p379
I239
sVVBP
p380
I503
sVWDT
p381
I39
sVJJ
p382
I960
sVWP
p383
I140
sVVBZ
p384
I413
sVDT
p385
I1259
sVNN
p386
I2228
sVFW
p387
I108
sVPOS
p388
I348
sVTO
p389
I338
sVPRP
p390
I1997
sVRB
p391
I1000
sVNNS
p392
I706
sVNNP
p393
I993
sVVB
p394
I1304
sVWRB
p395
I160
sVCC
p396
I696
sVRBS
p397
I12
sVRBR
p398
I2
sVCD
p399
I59
sVEX
p400
I43
sVIN
p401
I1771
sVWP$
p402
I5
sVMD
p403
I427
sVNNPS
p404
I18
sVJJS
p405
I27
sVJJR
p406
I64
sVUH
p407
I33
ssS'Coriolanus'
p408
(dp409
VPRP$
p410
I776
sVVBG
p411
I174
sVVBD
p412
I400
sVVBN
p413
I349
sVVBP
p414
I585
sVWDT
p415
I75
sVJJ
p416
I1105
sVWP
p417
I184
sVVBZ
p418
I390
sVDT
p419
I1526
sVNN
p420
I2867
sVFW
p421
I172
sVPOS
p422
I715
sVTO
p423
I482
sVPRP
p424
I2298
sVRB
p425
I963
sVNNS
p426
I918
sVNNP
p427
I581
sVVB
p428
I1374
sVWRB
p429
I167
sVCC
p430
I681
sVRBS
p431
I28
sVRBR
p432
I9
sVCD
p433
I105
sVEX
p434
I26
sVIN
p435
I2086
sVWP$
p436
I17
sVMD
p437
I441
sVNNPS
p438
I6
sVJJS
p439
I41
sVJJR
p440
I116
sVUH
p441
I36
ssS'Richard II'
p442
(dp443
VPRP$
p444
I444
sVVBG
p445
I117
sVFW
p446
I72
sVVBN
p447
I174
sVVBP
p448
I245
sVWDT
p449
I32
sVJJ
p450
I722
sVWP
p451
I56
sVVBZ
p452
I267
sVDT
p453
I765
sVNN
p454
I1793
sVVBD
p455
I157
sVPOS
p456
I256
sVTO
p457
I240
sVPRP
p458
I914
sVRB
p459
I539
sVNNS
p460
I455
sVNNP
p461
I407
sVVB
p462
I650
sVWRB
p463
I77
sVCC
p464
I410
sVRBS
p465
I2
sVRBR
p466
I5
sVCD
p467
I51
sVEX
p468
I17
sVIN
p469
I1148
sVWP$
p470
I4
sVMD
p471
I180
sVNNPS
p472
I5
sVJJS
p473
I9
sVJJR
p474
I39
sVUH
p475
I28
ssS'Cymbeline'
p476
(dp477
VPRP$
p478
I835
sVVBG
p479
I178
sVVBD
p480
I452
sVVBN
p481
I332
sVVBP
p482
I474
sVWDT
p483
I87
sVJJ
p484
I1191
sVWP
p485
I152
sVVBZ
p486
I420
sVDT
p487
I1466
sVNN
p488
I3151
sVFW
p489
I185
sVPOS
p490
I712
sVTO
p491
I423
sVPRP
p492
I2139
sVRB
p493
I1002
sVNNS
p494
I661
sVNNP
p495
I535
sVVB
p496
I1272
sVWRB
p497
I151
sVCC
p498
I689
sVRBS
p499
I20
sVRBR
p500
I20
sVCD
p501
I96
sVEX
p502
I44
sVIN
p503
I1975
sVWP$
p504
I22
sVMD
p505
I407
sVNNPS
p506
I19
sVJJS
p507
I45
sVJJR
p508
I132
sVUH
p509
I40
ssS'HenryV'
p510
(dp511
VPRP$
p512
I877
sVVBG
p513
I168
sVFW
p514
I139
sVVBN
p515
I305
sVVBP
p516
I390
sVWDT
p517
I59
sVJJ
p518
I1315
sVWP
p519
I105
sVVBZ
p520
I507
sVDT
p521
I1722
sVNN
p522
I3296
sVVBD
p523
I276
sVPOS
p524
I449
sVTO
p525
I433
sVPRP
p526
I1955
sVRB
p527
I962
sVNNS
p528
I889
sVNNP
p529
I1046
sVVB
p530
I1372
sVWRB
p531
I125
sVCC
p532
I971
sVRBS
p533
I28
sVRBR
p534
I7
sVCD
p535
I112
sVEX
p536
I66
sVIN
p537
I2452
sVWP$
p538
I21
sVMD
p539
I454
sVNNPS
p540
I6
sVJJS
p541
I23
sVJJR
p542
I77
sVUH
p543
I29
ssS'Twelfth Night'
p544
(dp545
VPRP$
p546
I373
sVVBG
p547
I52
sVVBD
p548
I183
sVVBN
p549
I168
sVVBP
p550
I305
sVWDT
p551
I16
sVJJ
p552
I659
sVWP
p553
I76
sVVBZ
p554
I268
sVDT
p555
I863
sVNN
p556
I1889
sVFW
p557
I29
sVPOS
p558
I406
sVTO
p559
I221
sVPRP
p560
I1444
sVRB
p561
I605
sVNNS
p562
I259
sVNNP
p563
I365
sVVB
p564
I770
sVWRB
p565
I86
sVCC
p566
I406
sVRBS
p567
I12
sVRBR
p568
I5
sVCD
p569
I64
sVEX
p570
I45
sVIN
p571
I1208
sVWP$
p572
I2
sVMD
p573
I271
sVNNPS
p574
I1
sVJJS
p575
I14
sVJJR
p576
I53
sVUH
p577
I25
ssS'HenryIV'
p578
(dp579
VPRP$
p580
I643
sVVBG
p581
I164
sVVBD
p582
I437
sVVBN
p583
I359
sVVBP
p584
I478
sVWDT
p585
I38
sVJJ
p586
I1389
sVWP
p587
I141
sVVBZ
p588
I385
sVDT
p589
I1737
sVNN
p590
I3334
sVFW
p591
I104
sVPOS
p592
I519
sVTO
p593
I373
sVPRP
p594
I2289
sVRB
p595
I1147
sVNNS
p596
I694
sVNNP
p597
I955
sVVB
p598
I1278
sVWRB
p599
I205
sVCC
p600
I915
sVRBS
p601
I11
sVRBR
p602
I9
sVCD
p603
I174
sVEX
p604
I63
sVIN
p605
I2396
sVWP$
p606
I16
sVMD
p607
I440
sVNNPS
p608
I4
sVJJS
p609
I19
sVJJR
p610
I93
sVUH
p611
I59
ssS'Othello'
p612
(dp613
VPRP$
p614
I830
sVVBG
p615
I137
sVFW
p616
I118
sVVBN
p617
I328
sVVBP
p618
I674
sVWDT
p619
I45
sVJJ
p620
I1419
sVWP
p621
I176
sVVBZ
p622
I522
sVDT
p623
I1510
sVNN
p624
I3265
sVVBD
p625
I393
sVPOS
p626
I613
sVTO
p627
I459
sVPRP
p628
I2474
sVRB
p629
I1171
sVNNS
p630
I612
sVNNP
p631
I748
sVVB
p632
I1459
sVWRB
p633
I175
sVCC
p634
I858
sVRBS
p635
I37
sVRBR
p636
I6
sVCD
p637
I77
sVEX
p638
I51
sVIN
p639
I2096
sVWP$
p640
I13
sVMD
p641
I451
sVNNPS
p642
I8
sVJJS
p643
I34
sVJJR
p644
I87
sVUH
p645
I80
ssS'King John'
p646
(dp647
VPRP$
p648
I676
sVVBG
p649
I126
sVVBD
p650
I284
sVVBN
p651
I312
sVVBP
p652
I381
sVWDT
p653
I41
sVJJ
p654
I1163
sVWP
p655
I125
sVVBZ
p656
I401
sVDT
p657
I1427
sVNN
p658
I3045
sVFW
p659
I130
sVPOS
p660
I393
sVTO
p661
I402
sVPRP
p662
I1489
sVRB
p663
I880
sVNNS
p664
I610
sVNNP
p665
I613
sVVB
p666
I1064
sVWRB
p667
I108
sVCC
p668
I729
sVRBS
p669
I11
sVRBR
p670
I2
sVCD
p671
I51
sVEX
p672
I33
sVIN
p673
I1996
sVWP$
p674
I25
sVMD
p675
I346
sVNNPS
p676
I3
sVJJS
p677
I26
sVJJR
p678
I63
sVUH
p679
I45
ssS'HenryVIPart2'
p680
(dp681
VPRP$
p682
I783
sVVBG
p683
I157
sVVBD
p684
I400
sVVBN
p685
I327
sVVBP
p686
I454
sVWDT
p687
I20
sVJJ
p688
I1317
sVWP
p689
I142
sVVBZ
p690
I416
sVDT
p691
I1513
sVNN
p692
I3330
sVFW
p693
I128
sVPOS
p694
I542
sVTO
p695
I474
sVPRP
p696
I1938
sVRB
p697
I980
sVNNS
p698
I692
sVNNP
p699
I1189
sVVB
p700
I1422
sVWRB
p701
I146
sVCC
p702
I875
sVRBS
p703
I11
sVRBR
p704
I7
sVCD
p705
I78
sVEX
p706
I29
sVIN
p707
I2192
sVWP$
p708
I18
sVMD
p709
I427
sVNNPS
p710
I15
sVJJS
p711
I27
sVJJR
p712
I67
sVUH
p713
I48
ssS'HenryVIPart3'
p714
(dp715
VPRP$
p716
I879
sVVBG
p717
I134
sVVBD
p718
I317
sVVBN
p719
I306
sVVBP
p720
I364
sVWDT
p721
I34
sVJJ
p722
I1171
sVWP
p723
I150
sVVBZ
p724
I424
sVDT
p725
I1362
sVNN
p726
I3310
sVFW
p727
I144
sVPOS
p728
I599
sVTO
p729
I493
sVPRP
p730
I1916
sVRB
p731
I1075
sVNNS
p732
I748
sVNNP
p733
I1165
sVVB
p734
I1392
sVWRB
p735
I206
sVCC
p736
I951
sVRBS
p737
I5
sVRBR
p738
I3
sVCD
p739
I85
sVEX
p740
I16
sVIN
p741
I2047
sVWP$
p742
I23
sVMD
p743
I436
sVNNPS
p744
I7
sVJJS
p745
I29
sVJJR
p746
I93
sVUH
p747
I59
ssS'HenryVIPart1'
p748
(dp749
VPRP$
p750
I706
sVVBG
p751
I107
sVVBD
p752
I276
sVVBN
p753
I286
sVVBP
p754
I316
sVWDT
p755
I30
sVJJ
p756
I1115
sVWP
p757
I111
sVVBZ
p758
I329
sVDT
p759
I1104
sVNN
p760
I2631
sVFW
p761
I141
sVPOS
p762
I417
sVTO
p763
I337
sVPRP
p764
I1404
sVRB
p765
I775
sVNNS
p766
I635
sVNNP
p767
I943
sVVB
p768
I1096
sVWRB
p769
I115
sVCC
p770
I704
sVRBS
p771
I11
sVRBR
p772
I9
sVCD
p773
I61
sVEX
p774
I32
sVIN
p775
I1766
sVWP$
p776
I13
sVMD
p777
I351
sVNNPS
p778
I12
sVJJS
p779
I23
sVJJR
p780
I49
sVUH
p781
I42
ssS'Titus Andronicus'
p782
(dp783
VPRP$
p784
I638
sVVBG
p785
I81
sVVBD
p786
I230
sVVBN
p787
I255
sVVBP
p788
I356
sVWDT
p789
I21
sVJJ
p790
I970
sVWP
p791
I109
sVVBZ
p792
I322
sVDT
p793
I1104
sVNN
p794
I2393
sVFW
p795
I120
sVPOS
p796
I418
sVTO
p797
I341
sVPRP
p798
I1538
sVRB
p799
I714
sVNNS
p800
I651
sVNNP
p801
I682
sVVB
p802
I1182
sVWRB
p803
I144
sVCC
p804
I686
sVRBS
p805
I8
sVRBR
p806
I3
sVCD
p807
I60
sVEX
p808
I30
sVIN
p809
I1477
sVWP$
p810
I8
sVMD
p811
I319
sVNNPS
p812
I16
sVJJS
p813
I9
sVJJR
p814
I65
sVUH
p815
I41
ssS'LovesLaboursLost'
p816
(dp817
VPRP$
p818
I268
sVVBG
p819
I71
sVFW
p820
I39
sVVBN
p821
I152
sVVBP
p822
I201
sVWDT
p823
I33
sVJJ
p824
I585
sVWP
p825
I47
sVVBZ
p826
I215
sVDT
p827
I816
sVNN
p828
I1584
sVVBD
p829
I156
sVPOS
p830
I205
sVTO
p831
I173
sVPRP
p832
I817
sVRB
p833
I421
sVNNS
p834
I225
sVNNP
p835
I384
sVVB
p836
I554
sVWRB
p837
I68
sVCC
p838
I298
sVRBS
p839
I19
sVRBR
p840
I2
sVCD
p841
I79
sVEX
p842
I11
sVIN
p843
I861
sVWP$
p844
I3
sVMD
p845
I200
sVNNPS
p846
I1
sVJJS
p847
I22
sVJJR
p848
I31
sVUH
p849
I17
ssS'Midsummer Nights Dream'
p850
(dp851
VPRP$
p852
I386
sVVBG
p853
I92
sVVBD
p854
I141
sVVBN
p855
I152
sVVBP
p856
I262
sVWDT
p857
I21
sVJJ
p858
I714
sVWP
p859
I53
sVVBZ
p860
I270
sVDT
p861
I920
sVNN
p862
I1794
sVFW
p863
I50
sVPOS
p864
I234
sVTO
p865
I214
sVPRP
p866
I1121
sVRB
p867
I566
sVNNS
p868
I308
sVNNP
p869
I446
sVVB
p870
I785
sVWRB
p871
I94
sVCC
p872
I480
sVRBS
p873
I16
sVRBR
p874
I6
sVCD
p875
I61
sVEX
p876
I33
sVIN
p877
I1104
sVWP$
p878
I6
sVMD
p879
I287
sVNNPS
p880
I2
sVJJS
p881
I22
sVJJR
p882
I40
sVUH
p883
I25
ssS'MerryWivesOfWindsor'
p884
(dp885
VPRP$
p886
I582
sVVBG
p887
I68
sVVBD
p888
I250
sVVBN
p889
I235
sVVBP
p890
I393
sVWDT
p891
I18
sVJJ
p892
I788
sVWP
p893
I94
sVVBZ
p894
I401
sVDT
p895
I1007
sVNN
p896
I2243
sVFW
p897
I60
sVPOS
p898
I366
sVTO
p899
I258
sVPRP
p900
I1860
sVRB
p901
I665
sVNNS
p902
I448
sVNNP
p903
I834
sVVB
p904
I971
sVWRB
p905
I106
sVCC
p906
I452
sVRBS
p907
I5
sVCD
p908
I114
sVEX
p909
I60
sVIN
p910
I1408
sVWP$
p911
I2
sVMD
p912
I410
sVNNPS
p913
I7
sVJJS
p914
I7
sVJJR
p915
I41
sVUH
p916
I55
ssS'Measure For Measure'
p917
(dp918
VPRP$
p919
I376
sVVBG
p920
I86
sVFW
p921
I37
sVVBN
p922
I169
sVVBP
p923
I286
sVWDT
p924
I20
sVJJ
p925
I524
sVWP
p926
I85
sVVBZ
p927
I213
sVDT
p928
I760
sVNN
p929
I1681
sVVBD
p930
I182
sVPOS
p931
I222
sVTO
p932
I264
sVPRP
p933
I1186
sVRB
p934
I588
sVNNS
p935
I215
sVNNP
p936
I301
sVVB
p937
I707
sVWRB
p938
I85
sVCC
p939
I351
sVRBS
p940
I16
sVRBR
p941
I2
sVCD
p942
I54
sVEX
p943
I30
sVIN
p944
I1034
sVWP$
p945
I6
sVMD
p946
I232
sVNNPS
p947
I2
sVJJS
p948
I12
sVJJR
p949
I50
sVUH
p950
I30
ssS'Pericles'
p951
(dp952
VPRP$
p953
I573
sVVBG
p954
I98
sVVBD
p955
I247
sVVBN
p956
I233
sVVBP
p957
I321
sVWDT
p958
I61
sVJJ
p959
I740
sVWP
p960
I138
sVVBZ
p961
I314
sVDT
p962
I954
sVNN
p963
I2176
sVFW
p964
I110
sVPOS
p965
I432
sVTO
p966
I351
sVPRP
p967
I1391
sVRB
p968
I612
sVNNS
p969
I516
sVNNP
p970
I408
sVVB
p971
I882
sVWRB
p972
I116
sVCC
p973
I492
sVRBS
p974
I12
sVRBR
p975
I4
sVCD
p976
I47
sVEX
p977
I25
sVIN
p978
I1330
sVWP$
p979
I11
sVMD
p980
I288
sVNNPS
p981
I6
sVJJS
p982
I27
sVJJR
p983
I51
sVUH
p984
I33
ssS'AllsWellThatEndsWell'
p985
(dp986
VPRP$
p987
I578
sVVBG
p988
I86
sVVBD
p989
I303
sVVBN
p990
I176
sVVBP
p991
I350
sVWDT
p992
I45
sVJJ
p993
I791
sVWP
p994
I83
sVVBZ
p995
I302
sVDT
p996
I997
sVNN
p997
I2073
sVFW
p998
I55
sVPOS
p999
I388
sVTO
p1000
I291
sVPRP
p1001
I1569
sVRB
p1002
I635
sVNNS
p1003
I330
sVNNP
p1004
I272
sVVB
p1005
I846
sVWRB
p1006
I84
sVCC
p1007
I476
sVRBS
p1008
I17
sVRBR
p1009
I3
sVCD
p1010
I73
sVEX
p1011
I36
sVIN
p1012
I1287
sVWP$
p1013
I16
sVMD
p1014
I306
sVNNPS
p1015
I1
sVJJS
p1016
I21
sVJJR
p1017
I70
sVUH
p1018
I25
ssS'Macbeth'
p1019
(dp1020
VPRP$
p1021
I452
sVVBG
p1022
I70
sVFW
p1023
I103
sVVBN
p1024
I220
sVVBP
p1025
I259
sVWDT
p1026
I57
sVJJ
p1027
I786
sVWP
p1028
I110
sVVBZ
p1029
I307
sVDT
p1030
I933
sVNN
p1031
I1984
sVVBD
p1032
I221
sVPOS
p1033
I417
sVTO
p1034
I253
sVPRP
p1035
I1151
sVRB
p1036
I574
sVNNS
p1037
I467
sVNNP
p1038
I353
sVVB
p1039
I806
sVWRB
p1040
I93
sVCC
p1041
I465
sVRBS
p1042
I17
sVRBR
p1043
I5
sVCD
p1044
I40
sVEX
p1045
I40
sVIN
p1046
I1159
sVWP$
p1047
I14
sVMD
p1048
I251
sVNNPS
p1049
I1
sVJJS
p1050
I32
sVJJR
p1051
I60
sVUH
p1052
I26
ssS'Hamlet'
p1053
(dp1054
VPRP$
p1055
I719
sVVBG
p1056
I110
sVVBD
p1057
I292
sVVBN
p1058
I234
sVVBP
p1059
I417
sVWDT
p1060
I33
sVJJ
p1061
I1121
sVWP
p1062
I150
sVVBZ
p1063
I475
sVDT
p1064
I1590
sVNN
p1065
I3343
sVFW
p1066
I97
sVPOS
p1067
I545
sVTO
p1068
I406
sVPRP
p1069
I1861
sVRB
p1070
I972
sVNNS
p1071
I585
sVNNP
p1072
I525
sVVB
p1073
I1245
sVWRB
p1074
I168
sVCC
p1075
I768
sVRBS
p1076
I36
sVRBR
p1077
I3
sVCD
p1078
I88
sVEX
p1079
I51
sVIN
p1080
I1956
sVWP$
p1081
I23
sVMD
p1082
I396
sVNNPS
p1083
I15
sVJJS
p1084
I21
sVJJR
p1085
I82
sVUH
p1086
I50
ssS'Two Gentlemen of Verona'
p1087
(dp1088
VPRP$
p1089
I594
sVVBG
p1090
I117
sVVBD
p1091
I215
sVVBN
p1092
I215
sVVBP
p1093
I337
sVWDT
p1094
I29
sVJJ
p1095
I713
sVWP
p1096
I94
sVVBZ
p1097
I370
sVDT
p1098
I838
sVNN
p1099
I1994
sVFW
p1100
I57
sVPOS
p1101
I368
sVTO
p1102
I312
sVPRP
p1103
I1591
sVRB
p1104
I731
sVNNS
p1105
I298
sVNNP
p1106
I485
sVVB
p1107
I830
sVWRB
p1108
I163
sVCC
p1109
I432
sVRBS
p1110
I5
sVRBR
p1111
I5
sVCD
p1112
I68
sVEX
p1113
I24
sVIN
p1114
I1348
sVWP$
p1115
I7
sVMD
p1116
I305
sVNNPS
p1117
I1
sVJJS
p1118
I14
sVJJR
p1119
I60
sVUH
p1120
I22
ssS'AntonyAndCleopatra'
p1121
(dp1122
VPRP$
p1123
I713
sVVBG
p1124
I122
sVFW
p1125
I145
sVVBN
p1126
I313
sVVBP
p1127
I428
sVWDT
p1128
I86
sVJJ
p1129
I921
sVWP
p1130
I132
sVVBZ
p1131
I436
sVDT
p1132
I1182
sVNN
p1133
I2630
sVVBD
p1134
I374
sVPOS
p1135
I584
sVTO
p1136
I392
sVPRP
p1137
I1907
sVRB
p1138
I889
sVNNS
p1139
I643
sVNNP
p1140
I878
sVVB
p1141
I1218
sVWRB
p1142
I143
sVCC
p1143
I568
sVRBS
p1144
I23
sVRBR
p1145
I6
sVCD
p1146
I51
sVEX
p1147
I41
sVIN
p1148
I1671
sVWP$
p1149
I18
sVMD
p1150
I396
sVNNPS
p1151
I3
sVJJS
p1152
I51
sVJJR
p1153
I88
sVUH
p1154
I54
ssS'Troilus and Cressida'
p1155
(dp1156
VPRP$
p1157
I782
sVVBG
p1158
I137
sVFW
p1159
I119
sVVBN
p1160
I281
sVVBP
p1161
I464
sVWDT
p1162
I41
sVJJ
p1163
I1442
sVWP
p1164
I211
sVVBZ
p1165
I622
sVDT
p1166
I1578
sVNN
p1167
I3472
sVVBD
p1168
I288
sVPOS
p1169
I687
sVTO
p1170
I444
sVPRP
p1171
I2139
sVRB
p1172
I1056
sVNNS
p1173
I765
sVNNP
p1174
I1087
sVVB
p1175
I1391
sVWRB
p1176
I204
sVCC
p1177
I829
sVRBS
p1178
I24
sVRBR
p1179
I9
sVCD
p1180
I75
sVEX
p1181
I86
sVIN
p1182
I2135
sVWP$
p1183
I21
sVMD
p1184
I427
sVNNPS
p1185
I20
sVJJS
p1186
I28
sVJJR
p1187
I110
sVUH
p1188
I82
ssS'Richard III'
p1189
(dp1190
VPRP$
p1191
I789
sVVBG
p1192
I94
sVFW
p1193
I130
sVVBN
p1194
I230
sVVBP
p1195
I360
sVWDT
p1196
I47
sVJJ
p1197
I1043
sVWP
p1198
I118
sVVBZ
p1199
I287
sVDT
p1200
I1084
sVNN
p1201
I2422
sVVBD
p1202
I325
sVPOS
p1203
I389
sVTO
p1204
I370
sVPRP
p1205
I1508
sVRB
p1206
I747
sVNNS
p1207
I522
sVNNP
p1208
I664
sVVB
p1209
I916
sVWRB
p1210
I116
sVCC
p1211
I586
sVRBS
p1212
I20
sVRBR
p1213
I6
sVCD
p1214
I53
sVEX
p1215
I23
sVIN
p1216
I1615
sVWP$
p1217
I5
sVMD
p1218
I275
sVNNPS
p1219
I15
sVJJS
p1220
I15
sVJJR
p1221
I48
sVUH
p1222
I32
ss.