(dp1
S'ComedyOfErrors'
p2
F0.034958447050483586
sS'King Lear'
p3
F0.059184191353309032
sS'MerchantOfVenice'
p4
F0.067017944447446479
sS'Timon of Athens'
p5
F0.17777777777777778
sS'AsYouLikeIt'
p6
F0.10049063785082746
sS'Romeo and Juliet'
p7
F0.052937453580386658
sS'Much Ado About Nothing'
p8
F0.081328356510954589
sS'The Tempest'
p9
F0.069476254534665771
sS'HenryVIII'
p10
F0.04965382898389438
sS"The Winter's Tale"
p11
F0.084024695448164891
sS'Taming Of The Shrew'
p12
F0.0506971256971257
sS'JuliusCaesar'
p13
F0.00010254101640655947
sS'Coriolanus'
p14
F0.079620247647240003
sS'Richard II'
p15
F0.053246513441600134
sS'Cymbeline'
p16
F0.02998218054347089
sS'HenryV'
p17
F0.056172839506172835
sS'Twelfth Night'
p18
F0.082800393520813434
sS'HenryIV'
p19
F0.034429824561403512
sS'Othello'
p20
F0.04422599035979851
sS'King John'
p21
F0.034707324389811015
sS'HenryVIPart2'
p22
F0.043381885822510825
sS'HenryVIPart3'
p23
F0.038884264212744331
sS'HenryVIPart1'
p24
F0.035633755711880703
sS'Titus Andronicus'
p25
F0.076607342645743898
sS'LovesLaboursLost'
p26
F0.10513517842581446
sS'Midsummer Nights Dream'
p27
F0.079283599648360778
sS'MerryWivesOfWindsor'
p28
F0.083358492234149331
sS'Measure For Measure'
p29
F0.057699859738106034
sS'Pericles'
p30
F0.069902683295540433
sS'AllsWellThatEndsWell'
p31
F0.085350070233998779
sS'Macbeth'
p32
F0.048064266546987928
sS'Hamlet'
p33
F0.078049719887955185
sS'Two Gentlemen of Verona'
p34
F0.079479514156729339
sS'AntonyAndCleopatra'
p35
F0.07438755973973632
sS'Troilus and Cressida'
p36
F0.083424529760446245
sS'Richard III'
p37
F0.023796868704349026
s.