(dp1
S'ComedyOfErrors'
p2
F0.032118648536528807
sS'King Lear'
p3
F0.041052888337839738
sS'MerchantOfVenice'
p4
F0.075602361106881441
sS'Timon of Athens'
p5
F0.085921128895761534
sS'AsYouLikeIt'
p6
F0.099856042392250308
sS'Romeo and Juliet'
p7
F0.072211028638514793
sS'Much Ado About Nothing'
p8
F0.084749928267084995
sS'The Tempest'
p9
F0.066034614646724152
sS'HenryVIII'
p10
F0.089091409169533897
sS"The Winter's Tale"
p11
F0.070014976061057596
sS'Taming Of The Shrew'
p12
F0.089006276834617593
sS'JuliusCaesar'
p13
F0.04762016848398036
sS'Coriolanus'
p14
F0.070375651170014972
sS'Richard II'
p15
F0.041887198671698704
sS'Cymbeline'
p16
F0.068955916903129966
sS'HenryV'
p17
F0.065925541139948002
sS'Twelfth Night'
p18
F0.072984843866809174
sS'HenryIV'
p19
F0.051992209729868316
sS'Othello'
p20
F0.070618244293932098
sS'King John'
p21
F0.048754908324157069
sS'HenryVIPart2'
p22
F0.046162014287014268
sS'HenryVIPart3'
p23
F0.050397825203696414
sS'HenryVIPart1'
p24
F0.052798490905135581
sS'Titus Andronicus'
p25
F0.053317673296382047
sS'LovesLaboursLost'
p26
F0.08759069737982729
sS'Midsummer Nights Dream'
p27
F0.080721794665868832
sS'MerryWivesOfWindsor'
p28
F0.0757531784868547
sS'Measure For Measure'
p29
F0.065104237251439212
sS'Pericles'
p30
F0.064684572507618596
sS'AllsWellThatEndsWell'
p31
F0.082588363957904018
sS'Macbeth'
p32
F0.041670846462779902
sS'Hamlet'
p33
F0.061464198238339415
sS'Two Gentlemen of Verona'
p34
F0.090534737538170207
sS'AntonyAndCleopatra'
p35
F0.078562640577025111
sS'Troilus and Cressida'
p36
F0.085951000144857029
sS'Richard III'
p37
F0.050321869261820223
s.